; Function Attrs: mustprogress nounwind uwtable
define internal void @_ZN9grpc_core12_GLOBAL__N_18RingHash6PickerD2Ev(ptr nocapture noundef nonnull align 8 dereferenceable(56) %this) unnamed_addr #4 align 2 personality ptr @__gxx_personality_v0 {
entry:
  store ptr getelementptr inbounds ({ [6 x ptr] }, ptr @_ZTVN9grpc_core12_GLOBAL__N_18RingHash6PickerE, i64 0, i32 0, i64 2), ptr %this, align 8
  %endpoints_ = getelementptr inbounds i8, ptr %this, i64 32
  tail call fastcc void @_ZNSt6vectorIN9grpc_core12_GLOBAL__N_18RingHash16RingHashEndpoint12EndpointInfoESaIS4_EED2Ev(ptr noundef nonnull align 8 dereferenceable(24) %endpoints_) #23
  %ring_ = getelementptr inbounds i8, ptr %this, i64 24
  %ring_.val = load ptr, ptr %ring_, align 8
  %cmp.not.i = icmp eq ptr %ring_.val, null
  br i1 %cmp.not.i, label %_ZN9grpc_core13RefCountedPtrINS_12_GLOBAL__N_18RingHash4RingEED2Ev.exit, label %if.then.i

if.then.i:                                        ; preds = %entry
  %refs_.i.i = getelementptr inbounds i8, ptr %ring_.val, i64 8
  %0 = atomicrmw sub ptr %refs_.i.i, i64 1 acq_rel, align 8
  %cmp.i.i.i = icmp eq i64 %0, 1
  br i1 %cmp.i.i.i, label %if.then.i.i, label %_ZN9grpc_core13RefCountedPtrINS_12_GLOBAL__N_18RingHash4RingEED2Ev.exit

if.then.i.i:                                      ; preds = %if.then.i
  %vtable.i.i.i = load ptr, ptr %ring_.val, align 8
  %vfn.i.i.i = getelementptr inbounds i8, ptr %vtable.i.i.i, i64 8
  %1 = load ptr, ptr %vfn.i.i.i, align 8
  tail call void %1(ptr noundef nonnull align 8 dereferenceable(40) %ring_.val) #23
  br label %_ZN9grpc_core13RefCountedPtrINS_12_GLOBAL__N_18RingHash4RingEED2Ev.exit

_ZN9grpc_core13RefCountedPtrINS_12_GLOBAL__N_18RingHash4RingEED2Ev.exit: ; preds = %entry, %if.then.i, %if.then.i.i
  %ring_hash_ = getelementptr inbounds i8, ptr %this, i64 16
  %ring_hash_.val = load ptr, ptr %ring_hash_, align 8
  %cmp.not.i1 = icmp eq ptr %ring_hash_.val, null
  br i1 %cmp.not.i1, label %_ZN9grpc_core13RefCountedPtrINS_12_GLOBAL__N_18RingHashEED2Ev.exit, label %if.then.i2

if.then.i2:                                       ; preds = %_ZN9grpc_core13RefCountedPtrINS_12_GLOBAL__N_18RingHash4RingEED2Ev.exit
  %refs_.i.i3 = getelementptr inbounds i8, ptr %ring_hash_.val, i64 8
  %2 = atomicrmw sub ptr %refs_.i.i3, i64 1 acq_rel, align 8
  %cmp.i.i.i4 = icmp eq i64 %2, 1
  br i1 %cmp.i.i.i4, label %if.then.i.i5, label %_ZN9grpc_core13RefCountedPtrINS_12_GLOBAL__N_18RingHashEED2Ev.exit

if.then.i.i5:                                     ; preds = %if.then.i2
  %vtable.i.i.i6 = load ptr, ptr %ring_hash_.val, align 8
  %vfn.i.i.i7 = getelementptr inbounds i8, ptr %vtable.i.i.i6, i64 16
  %3 = load ptr, ptr %vfn.i.i.i7, align 8
  tail call void %3(ptr noundef nonnull align 8 dereferenceable(56) %ring_hash_.val) #23
  br label %_ZN9grpc_core13RefCountedPtrINS_12_GLOBAL__N_18RingHashEED2Ev.exit

_ZN9grpc_core13RefCountedPtrINS_12_GLOBAL__N_18RingHashEED2Ev.exit: ; preds = %_ZN9grpc_core13RefCountedPtrINS_12_GLOBAL__N_18RingHash4RingEED2Ev.exit, %if.then.i2, %if.then.i.i5
  ret void
}